Certificate:
    Data:
        Version: 3 (0x2)
        Serial Number:
            43:eb:a0:c6:b0:43:53:68:a3:b4:4f:69:9e:ea:29:40:2f:8a:19:b7
        Signature Algorithm: sha256WithRSAEncryption
        Issuer: C=PH, ST=CAVITE, L=BACOOR, O=ACCSOL, OU=IT, CN=localhost
        Validity
            Not Before: Jan 23 03:12:09 2024 GMT
            Not After : Feb 22 03:12:09 2024 GMT
        Subject: C=PH, ST=CAVITE, L=BACOOR, O=ACCSOL, OU=IT, CN=localhost
        Subject Public Key Info:
            Public Key Algorithm: rsaEncryption
                Public-Key: (4096 bit)
                Modulus:
                    00:ae:05:2c:df:c3:e1:c4:f6:fb:0e:ae:a6:61:af:
                    3d:80:e8:97:36:56:10:9f:e8:58:96:22:8a:f5:ed:
                    49:33:94:fc:ee:da:1d:c5:69:36:92:0f:d9:13:6b:
                    aa:9f:43:25:c9:dc:2a:8b:6a:79:db:a3:17:fc:d0:
                    e0:47:e0:15:7e:25:cb:7f:30:13:99:88:cd:ee:8d:
                    c8:49:8d:61:1f:eb:ee:8b:17:b9:17:6f:c8:13:71:
                    65:cc:40:b0:80:eb:a0:09:91:59:47:86:a6:d1:6c:
                    b8:91:c0:b8:cf:4e:0b:41:a1:08:44:12:5f:34:f0:
                    f8:18:7f:39:43:33:33:04:7b:7e:0a:25:50:fa:38:
                    e2:de:9b:10:94:54:77:b4:f3:19:ec:cd:bd:2b:e1:
                    85:b3:9f:2a:69:bf:66:53:ba:fa:44:c9:29:fa:fe:
                    68:5a:7e:72:54:78:c2:32:c1:2e:80:cf:be:29:e4:
                    28:f3:f1:d2:d1:97:a7:48:74:66:a1:83:2d:a1:a9:
                    ce:60:62:9f:c9:82:42:45:27:2d:cc:23:04:50:29:
                    69:bb:67:3d:90:16:dc:7e:be:0d:06:0a:26:2e:13:
                    6b:f4:8f:3d:61:c2:62:14:7a:d5:54:d7:8d:ad:55:
                    cf:94:e8:3a:05:6e:73:55:17:0e:6a:a5:04:a8:37:
                    d5:80:17:5b:7c:77:a4:21:36:c8:8b:e3:75:e6:ad:
                    72:94:20:bd:05:fd:81:97:cf:b1:e5:62:df:9e:1d:
                    95:8e:52:46:9d:db:ee:95:44:00:6f:fa:1d:83:7c:
                    c5:16:3a:ed:8b:fc:30:5d:f5:cd:24:94:1e:8b:3e:
                    fb:f7:31:0d:a3:b3:0d:23:5c:61:52:2e:a5:5f:96:
                    71:23:3c:df:49:e5:63:36:55:7c:e2:35:2d:20:93:
                    ea:48:f4:1e:5c:e6:9e:41:d5:0a:01:27:14:ee:81:
                    4d:94:c3:5d:af:e1:f8:6c:6a:2a:06:ce:4a:d3:76:
                    2c:26:e4:2a:85:eb:ea:b0:17:a9:e2:25:88:12:60:
                    50:d7:a0:f7:a8:bb:8e:c2:b7:d7:69:0d:6e:c0:83:
                    2a:07:1c:ab:83:b4:39:14:82:44:3f:a8:05:49:fa:
                    92:b1:33:cc:65:aa:b1:57:0f:a1:e3:fc:f0:ea:69:
                    75:06:a7:fe:ae:a5:97:5a:4a:fe:84:e7:96:ae:57:
                    07:41:92:97:f2:46:8c:91:7f:8a:34:81:1f:d3:1d:
                    96:8f:e9:6e:c9:3d:04:11:d3:88:c1:e5:fc:6b:d1:
                    01:d4:e1:78:03:ad:93:a5:38:d5:3c:95:5f:85:36:
                    08:97:a7:db:6f:d9:0e:93:ba:9c:a2:ec:fa:dc:18:
                    64:e8:2d
                Exponent: 65537 (0x10001)
        X509v3 extensions:
            X509v3 Subject Key Identifier: 
                09:CE:E7:D9:4D:4D:75:D5:F8:FE:60:71:E1:A0:AF:D3:FC:60:02:B2
            X509v3 Authority Key Identifier: 
                09:CE:E7:D9:4D:4D:75:D5:F8:FE:60:71:E1:A0:AF:D3:FC:60:02:B2
            X509v3 Basic Constraints: critical
                CA:TRUE
    Signature Algorithm: sha256WithRSAEncryption
    Signature Value:
        1c:a3:6c:b6:15:3d:6f:44:ce:0d:f7:ff:91:98:e6:69:ab:71:
        f7:0c:05:da:10:39:99:c6:07:85:24:90:c4:d6:d3:07:f0:22:
        e0:4c:33:2d:02:69:55:39:b1:04:12:9f:c9:d4:ba:cf:c0:d9:
        47:67:6b:5d:41:f7:06:ae:f5:85:fc:40:db:c5:00:e7:c1:77:
        05:d7:10:65:d3:7c:1a:12:ec:7b:44:77:fc:bc:de:2d:dd:23:
        e1:db:c5:d0:a4:79:78:3a:20:59:4b:41:8d:f4:ad:c9:af:5d:
        48:4a:1d:2f:77:3d:77:84:b1:c1:79:31:9c:d6:20:75:44:9d:
        36:ec:3d:48:7d:96:22:a2:12:e8:05:f0:d2:ac:1a:36:dd:ed:
        97:74:a4:04:82:63:23:99:fd:f7:cd:a2:1b:62:b6:90:5e:4e:
        e8:56:60:d9:dc:b3:d7:c8:b8:94:c4:99:2c:40:5f:d7:b9:cd:
        fe:81:3a:d7:cf:57:ae:78:5c:17:cf:b1:8a:d3:66:07:7f:3d:
        3f:bc:ba:1b:8b:ed:03:64:7d:89:5c:ca:ea:ea:9c:28:39:8e:
        35:ad:a4:ef:7b:d0:24:2b:5c:51:04:f6:99:1b:8a:a6:cb:99:
        9a:d9:a4:00:09:7f:d0:c1:62:cc:25:5d:89:60:55:28:f2:67:
        ed:a0:ba:aa:d6:1c:d7:4e:65:59:62:84:75:e6:cc:fc:76:86:
        e4:30:3d:41:89:67:57:97:c5:f4:2f:80:35:9a:14:26:b2:f4:
        cb:cf:e2:71:24:41:97:bb:34:b2:e0:85:05:52:a7:11:e2:33:
        cb:12:79:89:6c:4e:07:f4:84:3d:cd:85:43:e6:d6:e8:12:fd:
        e0:2a:18:98:5a:a4:5e:de:ac:b1:66:98:ea:2f:9f:93:1a:ad:
        3a:84:e9:d7:b0:67:ee:71:57:c7:45:d2:4e:c4:0b:f9:fa:74:
        4f:34:8a:c3:f7:d8:7e:1e:93:9a:c1:a4:02:77:8c:40:38:22:
        9c:b7:fe:08:01:24:2d:c9:f3:08:63:3c:fb:d3:de:2b:30:ae:
        b1:d9:28:52:2d:77:5a:42:31:6a:f5:21:e6:7f:4d:d3:76:a6:
        aa:d2:21:12:fb:c2:80:52:e9:71:dd:bd:d6:b0:1f:f6:5c:31:
        da:6b:66:2f:05:98:bd:eb:92:9c:e0:7f:ff:b9:fd:12:df:1c:
        04:a6:ab:30:07:e5:69:d8:93:b7:15:15:78:b3:22:fb:d9:0a:
        cb:29:3f:cb:2e:90:01:80:23:d9:f7:f8:a0:82:b1:48:30:c6:
        c4:0a:74:60:b2:81:ba:bf:3a:9d:fd:d4:b1:1b:45:52:d3:09:
        4d:ed:04:0b:1f:81:83:0f
-----BEGIN CERTIFICATE-----
MIIFozCCA4ugAwIBAgIUQ+ugxrBDU2ijtE9pnuopQC+KGbcwDQYJKoZIhvcNAQEL
BQAwYTELMAkGA1UEBhMCUEgxDzANBgNVBAgMBkNBVklURTEPMA0GA1UEBwwGQkFD
T09SMQ8wDQYDVQQKDAZBQ0NTT0wxCzAJBgNVBAsMAklUMRIwEAYDVQQDDAlsb2Nh
bGhvc3QwHhcNMjQwMTIzMDMxMjA5WhcNMjQwMjIyMDMxMjA5WjBhMQswCQYDVQQG
EwJQSDEPMA0GA1UECAwGQ0FWSVRFMQ8wDQYDVQQHDAZCQUNPT1IxDzANBgNVBAoM
BkFDQ1NPTDELMAkGA1UECwwCSVQxEjAQBgNVBAMMCWxvY2FsaG9zdDCCAiIwDQYJ
KoZIhvcNAQEBBQADggIPADCCAgoCggIBAK4FLN/D4cT2+w6upmGvPYDolzZWEJ/o
WJYiivXtSTOU/O7aHcVpNpIP2RNrqp9DJcncKotqedujF/zQ4EfgFX4ly38wE5mI
ze6NyEmNYR/r7osXuRdvyBNxZcxAsIDroAmRWUeGptFsuJHAuM9OC0GhCEQSXzTw
+Bh/OUMzMwR7fgolUPo44t6bEJRUd7TzGezNvSvhhbOfKmm/ZlO6+kTJKfr+aFp+
clR4wjLBLoDPvinkKPPx0tGXp0h0ZqGDLaGpzmBin8mCQkUnLcwjBFApabtnPZAW
3H6+DQYKJi4Ta/SPPWHCYhR61VTXja1Vz5ToOgVuc1UXDmqlBKg31YAXW3x3pCE2
yIvjdeatcpQgvQX9gZfPseVi354dlY5SRp3b7pVEAG/6HYN8xRY67Yv8MF31zSSU
Hos++/cxDaOzDSNcYVIupV+WcSM830nlYzZVfOI1LSCT6kj0HlzmnkHVCgEnFO6B
TZTDXa/h+GxqKgbOStN2LCbkKoXr6rAXqeIliBJgUNeg96i7jsK312kNbsCDKgcc
q4O0ORSCRD+oBUn6krEzzGWqsVcPoeP88OppdQan/q6ll1pK/oTnlq5XB0GSl/JG
jJF/ijSBH9Mdlo/pbsk9BBHTiMHl/GvRAdTheAOtk6U41TyVX4U2CJen22/ZDpO6
nKLs+twYZOgtAgMBAAGjUzBRMB0GA1UdDgQWBBQJzufZTU111fj+YHHhoK/T/GAC
sjAfBgNVHSMEGDAWgBQJzufZTU111fj+YHHhoK/T/GACsjAPBgNVHRMBAf8EBTAD
AQH/MA0GCSqGSIb3DQEBCwUAA4ICAQAco2y2FT1vRM4N9/+RmOZpq3H3DAXaEDmZ
xgeFJJDE1tMH8CLgTDMtAmlVObEEEp/J1LrPwNlHZ2tdQfcGrvWF/EDbxQDnwXcF
1xBl03waEux7RHf8vN4t3SPh28XQpHl4OiBZS0GN9K3Jr11ISh0vdz13hLHBeTGc
1iB1RJ027D1IfZYiohLoBfDSrBo23e2XdKQEgmMjmf33zaIbYraQXk7oVmDZ3LPX
yLiUxJksQF/Xuc3+gTrXz1eueFwXz7GK02YHfz0/vLobi+0DZH2JXMrq6pwoOY41
raTve9AkK1xRBPaZG4qmy5ma2aQACX/QwWLMJV2JYFUo8mftoLqq1hzXTmVZYoR1
5sz8dobkMD1BiWdXl8X0L4A1mhQmsvTLz+JxJEGXuzSy4IUFUqcR4jPLEnmJbE4H
9IQ9zYVD5tboEv3gKhiYWqRe3qyxZpjqL5+TGq06hOnXsGfucVfHRdJOxAv5+nRP
NIrD99h+HpOawaQCd4xAOCKct/4IASQtyfMIYzz7094rMK6x2ShSLXdaQjFq9SHm
f03Tdqaq0iES+8KAUulx3b3WsB/2XDHaa2YvBZi965Kc4H//uf0S3xwEpqswB+Vp
2JO3FRV4syL72QrLKT/LLpABgCPZ9/iggrFIMMbECnRgsoG6vzqd/dSxG0VS0wlN
7QQLH4GDDw==
-----END CERTIFICATE-----
